target datalayout = "e-m:e-p270:32:32-p271:32:32-p272:64:64-i64:64-i128:128-f80:128-n8:16:32:64-S128"
target triple = "x86_64-pc-linux-gnu"

%struct.reftable_buf = type { i64, i64, ptr }
%struct.reftable_write_options = type { i8, i32, i8, i16, i32, i32, i8, i8, i64, ptr, ptr, ptr }
%struct.reftable_stack = type { %struct.stat, ptr, i32, ptr, %struct.reftable_write_options, ptr, i64, ptr, %struct.reftable_compaction_stats }
%struct.stat = type { i64, i64, i64, i32, i32, i32, i32, i64, i64, i64, i64, %struct.timespec, %struct.timespec, %struct.timespec, [3 x i64] }
%struct.timespec = type { i64, i64 }
%struct.reftable_compaction_stats = type { i64, i64, i32, i32 }
%struct.reftable_merged_table = type { ptr, i64, i32, i32, i64, i64 }
%struct.reftable_addition = type { %struct.reftable_flock, ptr, ptr, i64, i64, i64 }
%struct.reftable_flock = type { ptr, i32, ptr }

; Function Attrs: nounwind uwtable
define dso_local i64 @reftable_stack_next_update_index(ptr noundef %0) #0 {
  %2 = alloca i64, align 8
  %3 = alloca ptr, align 8
  %4 = alloca i32, align 4
  %5 = alloca i32, align 4
  store ptr %0, ptr %3, align 8, !tbaa !13
  call void @llvm.lifetime.start.p0(i64 4, ptr %4) #10
  %6 = load ptr, ptr %3, align 8, !tbaa !13
  %7 = getelementptr inbounds nuw %struct.reftable_stack, ptr %6, i32 0, i32 7
  %8 = load ptr, ptr %7, align 8, !tbaa !43
  %9 = getelementptr inbounds nuw %struct.reftable_merged_table, ptr %8, i32 0, i32 1
  %10 = load i64, ptr %9, align 8, !tbaa !68
  %11 = trunc i64 %10 to i32
  store i32 %11, ptr %4, align 4, !tbaa !15
  %12 = load i32, ptr %4, align 4, !tbaa !15
  %13 = icmp sgt i32 %12, 0
  br i1 %13, label %14, label %25

14:                                               ; preds = %1
  %15 = load ptr, ptr %3, align 8, !tbaa !13
  %16 = getelementptr inbounds nuw %struct.reftable_stack, ptr %15, i32 0, i32 5
  %17 = load ptr, ptr %16, align 8, !tbaa !44
  %18 = load i32, ptr %4, align 4, !tbaa !15
  %19 = sub nsw i32 %18, 1
  %20 = sext i32 %19 to i64
  %21 = getelementptr inbounds ptr, ptr %17, i64 %20
  %22 = load ptr, ptr %21, align 8, !tbaa !46
  %23 = call i64 @reftable_reader_max_update_index(ptr noundef %22)
  %24 = add i64 %23, 1
  store i64 %24, ptr %2, align 8
  store i32 1, ptr %5, align 4
  br label %26

25:                                               ; preds = %1
  store i64 1, ptr %2, align 8
  store i32 1, ptr %5, align 4
  br label %26

26:                                               ; preds = %25, %14
  call void @llvm.lifetime.end.p0(i64 4, ptr %4) #10
  %27 = load i64, ptr %2, align 8
  ret i64 %27
}

; Function Attrs: nounwind uwtable
define internal i32 @reftable_stack_init_addition(ptr noundef %0, ptr noundef %1, i32 noundef %2) #0 {
  %4 = alloca ptr, align 8
  %5 = alloca ptr, align 8
  %6 = alloca i32, align 4
  %7 = alloca %struct.reftable_buf, align 8
  %8 = alloca i32, align 4
  store ptr %0, ptr %4, align 8, !tbaa !70
  store ptr %1, ptr %5, align 8, !tbaa !13
  store i32 %2, ptr %6, align 4, !tbaa !15
  call void @llvm.lifetime.start.p0(i64 24, ptr %7) #10
  call void @llvm.memset.p0.i64(ptr align 8 %7, i8 0, i64 24, i1 false)
  call void @llvm.lifetime.start.p0(i64 4, ptr %8) #10
  %9 = load ptr, ptr %5, align 8, !tbaa !13
  %10 = load ptr, ptr %4, align 8, !tbaa !70
  %11 = getelementptr inbounds nuw %struct.reftable_addition, ptr %10, i32 0, i32 1
  store ptr %9, ptr %11, align 8, !tbaa !75
  %12 = load ptr, ptr %4, align 8, !tbaa !70
  %13 = getelementptr inbounds nuw %struct.reftable_addition, ptr %12, i32 0, i32 0
  %14 = load ptr, ptr %5, align 8, !tbaa !13
  %15 = getelementptr inbounds nuw %struct.reftable_stack, ptr %14, i32 0, i32 1
  %16 = load ptr, ptr %15, align 8, !tbaa !26
  %17 = load ptr, ptr %5, align 8, !tbaa !13
  %18 = getelementptr inbounds nuw %struct.reftable_stack, ptr %17, i32 0, i32 4
  %19 = getelementptr inbounds nuw %struct.reftable_write_options, ptr %18, i32 0, i32 8
  %20 = load i64, ptr %19, align 8, !tbaa !94
  %21 = call i32 @flock_acquire(ptr noundef %13, ptr noundef %16, i64 noundef %20)
  store i32 %21, ptr %8, align 4, !tbaa !15
  %22 = load i32, ptr %8, align 4, !tbaa !15
  %23 = icmp slt i32 %22, 0
  br i1 %23, label %24, label %31

24:                                               ; preds = %3
  %25 = call ptr @__errno_location() #11
  %26 = load i32, ptr %25, align 4, !tbaa !15
  %27 = icmp eq i32 %26, 17
  br i1 %27, label %28, label %29

28:                                               ; preds = %24
  store i32 -5, ptr %8, align 4, !tbaa !15
  br label %30

29:                                               ; preds = %24
  store i32 -2, ptr %8, align 4, !tbaa !15
  br label %30

30:                                               ; preds = %29, %28
  br label %81

31:                                               ; preds = %3
  %32 = load ptr, ptr %5, align 8, !tbaa !13
  %33 = getelementptr inbounds nuw %struct.reftable_stack, ptr %32, i32 0, i32 4
  %34 = getelementptr inbounds nuw %struct.reftable_write_options, ptr %33, i32 0, i32 5
  %35 = load i32, ptr %34, align 8, !tbaa !95
  %36 = icmp ne i32 %35, 0
  br i1 %36, label %37, label %50

37:                                               ; preds = %31
  %38 = load ptr, ptr %4, align 8, !tbaa !70
  %39 = getelementptr inbounds nuw %struct.reftable_addition, ptr %38, i32 0, i32 0
  %40 = getelementptr inbounds nuw %struct.reftable_flock, ptr %39, i32 0, i32 0
  %41 = load ptr, ptr %40, align 8, !tbaa !96
  %42 = load ptr, ptr %5, align 8, !tbaa !13
  %43 = getelementptr inbounds nuw %struct.reftable_stack, ptr %42, i32 0, i32 4
  %44 = getelementptr inbounds nuw %struct.reftable_write_options, ptr %43, i32 0, i32 5
  %45 = load i32, ptr %44, align 8, !tbaa !95
  %46 = call i32 @chmod(ptr noundef %41, i32 noundef %45) #10
  %47 = icmp slt i32 %46, 0
  br i1 %47, label %48, label %49

48:                                               ; preds = %37
  store i32 -2, ptr %8, align 4, !tbaa !15
  br label %81

49:                                               ; preds = %37
  br label %50

50:                                               ; preds = %49, %31
  %51 = load ptr, ptr %5, align 8, !tbaa !13
  %52 = call i32 @stack_uptodate(ptr noundef %51)
  store i32 %52, ptr %8, align 4, !tbaa !15
  %53 = load i32, ptr %8, align 4, !tbaa !15
  %54 = icmp slt i32 %53, 0
  br i1 %54, label %55, label %56

55:                                               ; preds = %50
  br label %81

56:                                               ; preds = %50
  %57 = load i32, ptr %8, align 4, !tbaa !15
  %58 = icmp sgt i32 %57, 0
  br i1 %58, label %59, label %72

59:                                               ; preds = %56
  %60 = load i32, ptr %6, align 4, !tbaa !15
  %61 = and i32 %60, 1
  %62 = icmp ne i32 %61, 0
  br i1 %62, label %63, label %72

63:                                               ; preds = %59
  %64 = load ptr, ptr %4, align 8, !tbaa !70
  %65 = getelementptr inbounds nuw %struct.reftable_addition, ptr %64, i32 0, i32 1
  %66 = load ptr, ptr %65, align 8, !tbaa !75
  %67 = call i32 @reftable_stack_reload_maybe_reuse(ptr noundef %66, i32 noundef 1)
  store i32 %67, ptr %8, align 4, !tbaa !15
  %68 = load i32, ptr %8, align 4, !tbaa !15
  %69 = icmp ne i32 %68, 0
  br i1 %69, label %70, label %71

70:                                               ; preds = %63
  br label %81

71:                                               ; preds = %63
  br label %72

72:                                               ; preds = %71, %59, %56
  %73 = load i32, ptr %8, align 4, !tbaa !15
  %74 = icmp sgt i32 %73, 0
  br i1 %74, label %75, label %76

75:                                               ; preds = %72
  store i32 -12, ptr %8, align 4, !tbaa !15
  br label %81

76:                                               ; preds = %72
  %77 = load ptr, ptr %5, align 8, !tbaa !13
  %78 = call i64 @reftable_stack_next_update_index(ptr noundef %77)
  %79 = load ptr, ptr %4, align 8, !tbaa !70
  %80 = getelementptr inbounds nuw %struct.reftable_addition, ptr %79, i32 0, i32 5
  store i64 %78, ptr %80, align 8, !tbaa !97
  br label %81

81:                                               ; preds = %76, %75, %70, %55, %48, %30
  %82 = load i32, ptr %8, align 4, !tbaa !15
  %83 = icmp ne i32 %82, 0
  br i1 %83, label %84, label %86

84:                                               ; preds = %81
  %85 = load ptr, ptr %4, align 8, !tbaa !70
  call void @reftable_addition_close(ptr noundef %85)
  br label %86

86:                                               ; preds = %84, %81
  call void @reftable_buf_release(ptr noundef %7)
  %87 = load i32, ptr %8, align 4, !tbaa !15
  call void @llvm.lifetime.end.p0(i64 4, ptr %8) #10
  call void @llvm.lifetime.end.p0(i64 24, ptr %7) #10
  ret i32 %87
}