; Function Attrs: nounwind uwtable
define internal fastcc i32 @reftable_stack_init_addition(ptr noundef initializes((24, 32)) %0, ptr noundef %1, i32 noundef %2) unnamed_addr #0 {
  %4 = alloca %struct.reftable_buf, align 8
  call void @llvm.lifetime.start.p0(i64 24, ptr nonnull %4) #16
  call void @llvm.memset.p0.i64(ptr noundef nonnull align 8 dereferenceable(24) %4, i8 0, i64 24, i1 false)
  %5 = getelementptr inbounds nuw i8, ptr %0, i64 24
  store ptr %1, ptr %5, align 8, !tbaa !71
  %6 = getelementptr inbounds nuw i8, ptr %1, i64 144
  %7 = load ptr, ptr %6, align 8, !tbaa !19
  %8 = getelementptr inbounds nuw i8, ptr %1, i64 192
  %9 = load i64, ptr %8, align 8, !tbaa !89
  %10 = tail call i32 @flock_acquire(ptr noundef %0, ptr noundef %7, i64 noundef %9) #16
  %11 = icmp slt i32 %10, 0
  br i1 %11, label %12, label %16

12:                                               ; preds = %3
  %13 = tail call ptr @__errno_location() #17
  %14 = load i32, ptr %13, align 4, !tbaa !8
  %15 = icmp eq i32 %14, 17
  %. = select i1 %15, i32 -5, i32 -2
  br label %49

16:                                               ; preds = %3
  %17 = getelementptr inbounds nuw i8, ptr %1, i64 184
  %18 = load i32, ptr %17, align 8, !tbaa !90
  %.not = icmp eq i32 %18, 0
  br i1 %.not, label %23, label %19

19:                                               ; preds = %16
  %20 = load ptr, ptr %0, align 8, !tbaa !91
  %21 = tail call i32 @chmod(ptr noundef %20, i32 noundef %18) #16
  %22 = icmp slt i32 %21, 0
  br i1 %22, label %49, label %23

23:                                               ; preds = %19, %16
  %24 = tail call fastcc i32 @stack_uptodate(ptr noundef nonnull %1)
  %25 = icmp slt i32 %24, 0
  br i1 %25, label %49, label %26

26:                                               ; preds = %23
  %.not25 = icmp eq i32 %24, 0
  br i1 %.not25, label %.critedge, label %27

27:                                               ; preds = %26
  %28 = and i32 %2, 1
  %.not26 = icmp eq i32 %28, 0
  br i1 %.not26, label %49, label %29

29:                                               ; preds = %27
  %30 = load ptr, ptr %5, align 8, !tbaa !71
  %31 = tail call fastcc i32 @reftable_stack_reload_maybe_reuse(ptr noundef %30, i32 noundef 1)
  %.not27 = icmp eq i32 %31, 0
  br i1 %.not27, label %.critedge, label %49

.critedge:                                        ; preds = %29, %26
  %32 = getelementptr inbounds nuw i8, ptr %1, i64 240
  %33 = load ptr, ptr %32, align 8, !tbaa !34
  %34 = getelementptr inbounds nuw i8, ptr %33, i64 8
  %35 = load i64, ptr %34, align 8, !tbaa !36
  %36 = trunc i64 %35 to i32
  %37 = icmp sgt i32 %36, 0
  br i1 %37, label %38, label %47

38:                                               ; preds = %.critedge
  %39 = getelementptr inbounds nuw i8, ptr %1, i64 224
  %40 = load ptr, ptr %39, align 8, !tbaa !38
  %41 = add i64 %35, 4294967295
  %42 = and i64 %41, 4294967295
  %43 = getelementptr inbounds nuw ptr, ptr %40, i64 %42
  %44 = load ptr, ptr %43, align 8, !tbaa !39
  %45 = tail call i64 @reftable_reader_max_update_index(ptr noundef %44) #16
  %46 = add i64 %45, 1
  br label %47

47:                                               ; preds = %38, %.critedge
  %.0.i = phi i64 [ %46, %38 ], [ 1, %.critedge ]
  %48 = getelementptr inbounds nuw i8, ptr %0, i64 56
  store i64 %.0.i, ptr %48, align 8, !tbaa !92
  br label %50

49:                                               ; preds = %23, %29, %12, %19, %27
  %.0.ph = phi i32 [ -12, %27 ], [ -2, %19 ], [ %., %12 ], [ %31, %29 ], [ %24, %23 ]
  tail call fastcc void @reftable_addition_close(ptr noundef nonnull %0)
  br label %50

50:                                               ; preds = %47, %49
  %.032 = phi i32 [ %.0.ph, %49 ], [ 0, %47 ]
  call void @reftable_buf_release(ptr noundef nonnull %4) #16
  call void @llvm.lifetime.end.p0(i64 24, ptr nonnull %4) #16
  ret i32 %.032
}